target datalayout = "e-m:e-p270:32:32-p271:32:32-p272:64:64-i64:64-i128:128-f80:128-n8:16:32:64-S128"
target triple = "x86_64-pc-linux-gnu"

%struct._zval_struct = type { %union._zend_value, %union.anon, %union.anon.2 }
%union._zend_value = type { i64 }
%union.anon = type { i32 }
%union.anon.2 = type { i32 }
%struct._zend_op_array = type { i8, [3 x i8], i32, ptr, ptr, ptr, i32, i32, ptr, ptr, ptr, ptr, i32, ptr, i32, i32, i32, ptr, ptr, ptr, ptr, ptr, i32, i32, ptr, ptr, ptr, i32, i32, i32, i32, ptr, ptr, [6 x ptr] }
%struct.phpdbg_file_source = type { ptr, i64, %struct._zend_op_array, i32, [1 x i32] }

; Function Attrs: nounwind uwtable
define internal void @php_phpdbg_destroy_file_source(ptr noundef %0) #0 {
  %2 = alloca ptr, align 8
  %3 = alloca ptr, align 8
  store ptr %0, ptr %2, align 8, !tbaa !9
  call void @llvm.lifetime.start.p0(i64 8, ptr %3) #22
  %4 = load ptr, ptr %2, align 8, !tbaa !9
  %5 = getelementptr inbounds nuw %struct._zval_struct, ptr %4, i32 0, i32 0
  %6 = load ptr, ptr %5, align 8, !tbaa !11
  store ptr %6, ptr %3, align 8, !tbaa !118
  %7 = load ptr, ptr %3, align 8, !tbaa !118
  %8 = getelementptr inbounds nuw %struct.phpdbg_file_source, ptr %7, i32 0, i32 2
  call void @destroy_op_array(ptr noundef %8)
  %9 = load ptr, ptr %3, align 8, !tbaa !118
  %10 = getelementptr inbounds nuw %struct.phpdbg_file_source, ptr %9, i32 0, i32 0
  %11 = load ptr, ptr %10, align 8, !tbaa !248
  %12 = icmp ne ptr %11, null
  br i1 %12, label %13, label %17

13:                                               ; preds = %1
  %14 = load ptr, ptr %3, align 8, !tbaa !118
  %15 = getelementptr inbounds nuw %struct.phpdbg_file_source, ptr %14, i32 0, i32 0
  %16 = load ptr, ptr %15, align 8, !tbaa !248
  call void @_efree(ptr noundef %16)
  br label %17

17:                                               ; preds = %13, %1
  %18 = load ptr, ptr %3, align 8, !tbaa !118
  call void @_efree(ptr noundef %18)
  call void @llvm.lifetime.end.p0(i64 8, ptr %3) #22
  ret void
}