; Function Attrs: nounwind uwtable
define internal void @php_phpdbg_destroy_file_source(ptr noundef readonly captures(none) %0) #0 {
  %2 = load ptr, ptr %0, align 8, !tbaa !4
  %3 = getelementptr inbounds nuw i8, ptr %2, i64 16
  tail call void @destroy_op_array(ptr noundef nonnull %3) #27
  %4 = load ptr, ptr %2, align 8, !tbaa !248
  %.not = icmp eq ptr %4, null
  br i1 %.not, label %6, label %5

5:                                                ; preds = %1
  tail call void @_efree(ptr noundef nonnull %4) #27
  br label %6

6:                                                ; preds = %5, %1
  tail call void @_efree(ptr noundef nonnull %2) #27
  ret void
}